; Function Attrs: cold nounwind optsize uwtable
define internal i32 @ff_tx_fft_inplace_small_init_int32_c(ptr noundef initializes((24, 32)) %0, ptr readnone captures(none) %1, i64 noundef %2, ptr readnone captures(none) %3, i32 noundef %4, i32 noundef %5, ptr noundef %6) #0 {
  %8 = sext i32 %4 to i64
  %9 = shl nsw i64 %8, 3
  %10 = tail call noalias ptr @av_malloc(i64 noundef %9) #16
  %11 = getelementptr inbounds nuw i8, ptr %0, i64 24
  store ptr %10, ptr %11, align 8, !tbaa !54
  %.not = icmp eq ptr %10, null
  br i1 %.not, label %15, label %12

12:                                               ; preds = %7
  %13 = and i64 %2, -2
  %14 = tail call i32 @ff_tx_fft_init_int32_c(ptr noundef nonnull %0, ptr poison, i64 noundef %13, ptr poison, i32 noundef %4, i32 noundef %5, ptr noundef %6) #17
  br label %15

15:                                               ; preds = %7, %12
  %.0 = phi i32 [ %14, %12 ], [ -12, %7 ]
  ret i32 %.0
}